target datalayout = "e-m:e-p270:32:32-p271:32:32-p272:64:64-i64:64-i128:128-f80:128-n8:16:32:64-S128"
target triple = "x86_64-pc-linux-gnu"

%struct.Color = type { i8, i8, i8, i8 }

; Function Attrs: nounwind uwtable
define void @DrawLine(i32 noundef %0, i32 noundef %1, i32 noundef %2, i32 noundef %3, i32 %4) #2 {
  %6 = alloca %struct.Color, align 1
  %7 = alloca i32, align 4
  %8 = alloca i32, align 4
  %9 = alloca i32, align 4
  %10 = alloca i32, align 4
  store i32 %4, ptr %6, align 1
  store i32 %0, ptr %7, align 4
  store i32 %1, ptr %8, align 4
  store i32 %2, ptr %9, align 4
  store i32 %3, ptr %10, align 4
  call void @rlBegin(i32 noundef 1)
  %11 = getelementptr inbounds nuw %struct.Color, ptr %6, i32 0, i32 0
  %12 = load i8, ptr %11, align 1
  %13 = getelementptr inbounds nuw %struct.Color, ptr %6, i32 0, i32 1
  %14 = load i8, ptr %13, align 1
  %15 = getelementptr inbounds nuw %struct.Color, ptr %6, i32 0, i32 2
  %16 = load i8, ptr %15, align 1
  %17 = getelementptr inbounds nuw %struct.Color, ptr %6, i32 0, i32 3
  %18 = load i8, ptr %17, align 1
  call void @rlColor4ub(i8 noundef zeroext %12, i8 noundef zeroext %14, i8 noundef zeroext %16, i8 noundef zeroext %18)
  %19 = load i32, ptr %7, align 4
  %20 = sitofp i32 %19 to float
  %21 = load i32, ptr %8, align 4
  %22 = sitofp i32 %21 to float
  call void @rlVertex2f(float noundef %20, float noundef %22)
  %23 = load i32, ptr %9, align 4
  %24 = sitofp i32 %23 to float
  %25 = load i32, ptr %10, align 4
  %26 = sitofp i32 %25 to float
  call void @rlVertex2f(float noundef %24, float noundef %26)
  call void @rlEnd()
  ret void
}