; Function Attrs: nounwind uwtable
define void @DrawLine(i32 noundef %0, i32 noundef %1, i32 noundef %2, i32 noundef %3, i32 %4) local_unnamed_addr #7 {
  %.sroa.0.0.extract.trunc = trunc i32 %4 to i8
  %.sroa.2.0.extract.shift = lshr i32 %4, 8
  %.sroa.2.0.extract.trunc = trunc i32 %.sroa.2.0.extract.shift to i8
  %.sroa.3.0.extract.shift = lshr i32 %4, 16
  %.sroa.3.0.extract.trunc = trunc i32 %.sroa.3.0.extract.shift to i8
  %.sroa.4.0.extract.shift = lshr i32 %4, 24
  %.sroa.4.0.extract.trunc = trunc nuw i32 %.sroa.4.0.extract.shift to i8
  tail call void @rlBegin(i32 noundef 1) #16
  tail call void @rlColor4ub(i8 noundef zeroext %.sroa.0.0.extract.trunc, i8 noundef zeroext %.sroa.2.0.extract.trunc, i8 noundef zeroext %.sroa.3.0.extract.trunc, i8 noundef zeroext %.sroa.4.0.extract.trunc) #16
  %6 = sitofp i32 %0 to float
  %7 = sitofp i32 %1 to float
  tail call void @rlVertex2f(float noundef %6, float noundef %7) #16
  %8 = sitofp i32 %2 to float
  %9 = sitofp i32 %3 to float
  tail call void @rlVertex2f(float noundef %8, float noundef %9) #16
  tail call void @rlEnd() #16
  ret void
}